; Function Attrs: mustprogress uwtable
define noundef zeroext i1 @_ZN32pxrInternal_v0_24__pxrReserved__21UsdValidationRegistry14_CheckMetadataERKNS_20UsdValidatorMetadataEbb(ptr noundef nonnull readonly align 8 captures(none) dereferenceable(105) %0, i1 noundef zeroext %1, i1 noundef zeroext %2) local_unnamed_addr #0 align 2 personality ptr @__gxx_personality_v0 {
  %4 = alloca %"class.pxrInternal_v0_24__pxrReserved__::TfCallContext", align 8
  %5 = alloca %"class.pxrInternal_v0_24__pxrReserved__::TfCallContext", align 8
  br i1 %1, label %25, label %6

6:                                                ; preds = %3
  %7 = getelementptr inbounds nuw i8, ptr %0, i64 80
  %8 = load ptr, ptr %7, align 8
  %9 = getelementptr inbounds nuw i8, ptr %0, i64 88
  %10 = load ptr, ptr %9, align 8
  %11 = icmp eq ptr %8, %10
  br i1 %11, label %25, label %12

12:                                               ; preds = %6
  store ptr @.str.7, ptr %4, align 8
  %13 = getelementptr inbounds nuw i8, ptr %4, i64 8
  store ptr @__func__._ZN32pxrInternal_v0_24__pxrReserved__21UsdValidationRegistry14_CheckMetadataERKNS_20UsdValidatorMetadataEbb, ptr %13, align 8
  %14 = getelementptr inbounds nuw i8, ptr %4, i64 16
  store i64 751, ptr %14, align 8
  %15 = getelementptr inbounds nuw i8, ptr %4, i64 24
  store ptr @__PRETTY_FUNCTION__._ZN32pxrInternal_v0_24__pxrReserved__21UsdValidationRegistry14_CheckMetadataERKNS_20UsdValidatorMetadataEbb, ptr %15, align 8
  %16 = getelementptr inbounds nuw i8, ptr %4, i64 32
  store i8 0, ptr %16, align 8
  %17 = load ptr, ptr %0, align 8
  %18 = ptrtoint ptr %17 to i64
  %19 = and i64 %18, -8
  %.not.i = icmp eq i64 %19, 0
  br i1 %.not.i, label %_ZNK32pxrInternal_v0_24__pxrReserved__7TfToken7GetTextEv.exit, label %20

20:                                               ; preds = %12
  %21 = inttoptr i64 %19 to ptr
  %22 = getelementptr inbounds nuw i8, ptr %21, i64 16
  %23 = tail call noundef ptr @_ZNKSt7__cxx1112basic_stringIcSt11char_traitsIcESaIcEE5c_strEv(ptr noundef nonnull align 8 dereferenceable(32) %22) #17
  br label %_ZNK32pxrInternal_v0_24__pxrReserved__7TfToken7GetTextEv.exit

_ZNK32pxrInternal_v0_24__pxrReserved__7TfToken7GetTextEv.exit: ; preds = %12, %20
  %24 = phi ptr [ %23, %20 ], [ @.str.29, %12 ]
  call void (ptr, i32, ptr, ...) @_ZN32pxrInternal_v0_24__pxrReserved__18Tf_PostErrorHelperERKNS_13TfCallContextENS_16TfDiagnosticTypeEPKcz(ptr noundef nonnull align 8 dereferenceable(33) %4, i32 noundef 1, ptr noundef nonnull @.str.20, ptr noundef %24)
  br label %47

25:                                               ; preds = %6, %3
  %26 = getelementptr inbounds nuw i8, ptr %0, i64 104
  %27 = load i8, ptr %26, align 8
  %28 = trunc i8 %27 to i1
  %29 = xor i1 %2, %28
  br i1 %29, label %30, label %47

30:                                               ; preds = %25
  %31 = zext i1 %2 to i32
  store ptr @.str.7, ptr %5, align 8
  %32 = getelementptr inbounds nuw i8, ptr %5, i64 8
  store ptr @__func__._ZN32pxrInternal_v0_24__pxrReserved__21UsdValidationRegistry14_CheckMetadataERKNS_20UsdValidatorMetadataEbb, ptr %32, align 8
  %33 = getelementptr inbounds nuw i8, ptr %5, i64 16
  store i64 762, ptr %33, align 8
  %34 = getelementptr inbounds nuw i8, ptr %5, i64 24
  store ptr @__PRETTY_FUNCTION__._ZN32pxrInternal_v0_24__pxrReserved__21UsdValidationRegistry14_CheckMetadataERKNS_20UsdValidatorMetadataEbb, ptr %34, align 8
  %35 = getelementptr inbounds nuw i8, ptr %5, i64 32
  store i8 0, ptr %35, align 8
  %36 = load ptr, ptr %0, align 8
  %37 = ptrtoint ptr %36 to i64
  %38 = and i64 %37, -8
  %.not.i9 = icmp eq i64 %38, 0
  br i1 %.not.i9, label %_ZNK32pxrInternal_v0_24__pxrReserved__7TfToken7GetTextEv.exit10, label %39

39:                                               ; preds = %30
  %40 = inttoptr i64 %38 to ptr
  %41 = getelementptr inbounds nuw i8, ptr %40, i64 16
  %42 = tail call noundef ptr @_ZNKSt7__cxx1112basic_stringIcSt11char_traitsIcESaIcEE5c_strEv(ptr noundef nonnull align 8 dereferenceable(32) %41) #17
  %.pre = load i8, ptr %26, align 8
  br label %_ZNK32pxrInternal_v0_24__pxrReserved__7TfToken7GetTextEv.exit10

_ZNK32pxrInternal_v0_24__pxrReserved__7TfToken7GetTextEv.exit10: ; preds = %30, %39
  %43 = phi i8 [ %.pre, %39 ], [ %27, %30 ]
  %44 = phi ptr [ %42, %39 ], [ @.str.29, %30 ]
  %45 = and i8 %43, 1
  %46 = zext nneg i8 %45 to i32
  call void (ptr, i32, ptr, ...) @_ZN32pxrInternal_v0_24__pxrReserved__18Tf_PostErrorHelperERKNS_13TfCallContextENS_16TfDiagnosticTypeEPKcz(ptr noundef nonnull align 8 dereferenceable(33) %5, i32 noundef 1, ptr noundef nonnull @.str.21, ptr noundef %44, i32 noundef %31, i32 noundef %46)
  br label %47

47:                                               ; preds = %25, %_ZNK32pxrInternal_v0_24__pxrReserved__7TfToken7GetTextEv.exit10, %_ZNK32pxrInternal_v0_24__pxrReserved__7TfToken7GetTextEv.exit
  %.0 = phi i1 [ false, %_ZNK32pxrInternal_v0_24__pxrReserved__7TfToken7GetTextEv.exit10 ], [ false, %_ZNK32pxrInternal_v0_24__pxrReserved__7TfToken7GetTextEv.exit ], [ true, %25 ]
  ret i1 %.0
}